target datalayout = "e-m:e-p270:32:32-p271:32:32-p272:64:64-i64:64-i128:128-f80:128-n8:16:32:64-S128"
target triple = "x86_64-pc-linux-gnu"

%struct.darktable_t = type { %struct.dt_codepath_t, i32, i32, ptr, ptr, ptr, ptr, ptr, ptr, ptr, ptr, ptr, ptr, ptr, ptr, ptr, ptr, ptr, ptr, ptr, ptr, ptr, ptr, ptr, ptr, ptr, ptr, ptr, ptr, ptr, [64 x %struct.dt_pthread_mutex_t], %struct.dt_pthread_mutex_t, %struct.dt_pthread_mutex_t, %struct.dt_pthread_mutex_t, %struct.dt_pthread_mutex_t, %struct.dt_pthread_mutex_t, ptr, ptr, ptr, ptr, ptr, ptr, ptr, ptr, ptr, ptr, ptr, ptr, ptr, %struct.dt_lua_state_t, ptr, double, ptr, i32, [47 x i32], i32, i32, ptr, ptr, %struct.dt_sys_resources_t, %struct.dt_backthumb_t, %struct.dt_gimp_t }
%struct.dt_codepath_t = type { i8, [3 x i8] }
%struct.dt_pthread_mutex_t = type { %union.pthread_mutex_t }
%union.pthread_mutex_t = type { %struct.__pthread_mutex_s }
%struct.__pthread_mutex_s = type { i32, i32, i32, i32, i32, i16, i16, %struct.__pthread_internal_list }
%struct.__pthread_internal_list = type { ptr, ptr }
%struct.dt_lua_state_t = type { i32 }
%struct.dt_sys_resources_t = type { i64, i64, ptr, ptr, i32 }
%struct.dt_backthumb_t = type { double, double, i32, i32, i32, i32 }
%struct.dt_gimp_t = type { i32, ptr, ptr, i32, i32 }
%struct.dt_pwstorage_t = type { i32, ptr }

@darktable = external global %struct.darktable_t, align 8
@.str.27 = private unnamed_addr constant [49 x i8] c"[pwstorage_get] no backend. not reading anything\00", align 1

; Function Attrs: nounwind uwtable
define ptr @dt_pwstorage_get(ptr noundef %0) #0 {
  %2 = alloca ptr, align 8
  %3 = alloca ptr, align 8
  store ptr %0, ptr %3, align 8, !tbaa !49
  %4 = load ptr, ptr getelementptr inbounds nuw (%struct.darktable_t, ptr @darktable, i32 0, i32 19), align 8, !tbaa !54
  %5 = getelementptr inbounds nuw %struct.dt_pwstorage_t, ptr %4, i32 0, i32 0
  %6 = load i32, ptr %5, align 8, !tbaa !51
  switch i32 %6, label %26 [
    i32 0, label %7
    i32 2, label %26
    i32 1, label %20
    i32 3, label %26
    i32 4, label %26
  ]

7:                                                ; preds = %1
  br label %8

8:                                                ; preds = %7
  %9 = load i32, ptr getelementptr inbounds nuw (%struct.darktable_t, ptr @darktable, i32 0, i32 2), align 8, !tbaa !11
  %10 = and i32 64, %9
  %11 = icmp ne i32 %10, 0
  br i1 %11, label %12, label %18

12:                                               ; preds = %8
  %13 = load i32, ptr getelementptr inbounds nuw (%struct.darktable_t, ptr @darktable, i32 0, i32 2), align 8, !tbaa !11
  %14 = xor i32 %13, -1
  %15 = and i32 0, %14
  %16 = icmp ne i32 %15, 0
  br i1 %16, label %18, label %17

17:                                               ; preds = %12
  call void (ptr, ...) @dt_print_ext(ptr noundef @.str.27)
  br label %18

18:                                               ; preds = %17, %12, %8
  br label %19

19:                                               ; preds = %18
  br label %26

20:                                               ; preds = %1
  %21 = load ptr, ptr getelementptr inbounds nuw (%struct.darktable_t, ptr @darktable, i32 0, i32 19), align 8, !tbaa !54
  %22 = getelementptr inbounds nuw %struct.dt_pwstorage_t, ptr %21, i32 0, i32 1
  %23 = load ptr, ptr %22, align 8, !tbaa !53
  %24 = load ptr, ptr %3, align 8, !tbaa !49
  %25 = call ptr @dt_pwstorage_kwallet_get(ptr noundef %23, ptr noundef %24)
  store ptr %25, ptr %2, align 8
  br label %28

26:                                               ; preds = %1, %1, %1, %1, %19
  %27 = call ptr @g_hash_table_new(ptr noundef @g_str_hash, ptr noundef @g_str_equal)
  store ptr %27, ptr %2, align 8
  br label %28

28:                                               ; preds = %26, %20
  %29 = load ptr, ptr %2, align 8
  ret ptr %29
}