; Function Attrs: nounwind uwtable
define ptr @dt_pwstorage_get(ptr noundef %0) local_unnamed_addr #0 {
  %2 = load ptr, ptr getelementptr inbounds nuw (i8, ptr @darktable, i64 144), align 8, !tbaa !51
  %3 = load i32, ptr %2, align 8, !tbaa !48
  switch i32 %3, label %12 [
    i32 0, label %4
    i32 1, label %8
  ]

4:                                                ; preds = %1
  %5 = load i32, ptr getelementptr inbounds nuw (i8, ptr @darktable, i64 8), align 8, !tbaa !6
  %6 = and i32 %5, 64
  %.not = icmp eq i32 %6, 0
  br i1 %.not, label %12, label %7

7:                                                ; preds = %4
  tail call void (ptr, ...) @dt_print_ext(ptr noundef nonnull @.str.27) #6
  br label %12

8:                                                ; preds = %1
  %9 = getelementptr inbounds nuw i8, ptr %2, i64 8
  %10 = load ptr, ptr %9, align 8, !tbaa !50
  %11 = tail call ptr @dt_pwstorage_kwallet_get(ptr noundef %10, ptr noundef %0) #6
  br label %14

12:                                               ; preds = %7, %4, %1
  %13 = tail call ptr @g_hash_table_new(ptr noundef nonnull @g_str_hash, ptr noundef nonnull @g_str_equal) #6
  br label %14

14:                                               ; preds = %12, %8
  %.0 = phi ptr [ %13, %12 ], [ %11, %8 ]
  ret ptr %.0
}